; Function Attrs: mustprogress nofree norecurse nosync nounwind willreturn memory(readwrite, inaccessiblemem: none) uwtable
define internal noundef range(i32 -9, 1114112) i32 @_ZL18_UTF32GetNextUCharP23UConverterToUnicodeArgsP10UErrorCode(ptr noundef captures(none) %0, ptr noundef writeonly captures(none) %1) #2 {
  %3 = getelementptr inbounds nuw i8, ptr %0, i64 8
  %4 = load ptr, ptr %3, align 8, !tbaa !16
  %5 = getelementptr inbounds nuw i8, ptr %4, i64 76
  %6 = load i32, ptr %5, align 4, !tbaa !57
  switch i32 %6, label %_ZL34T_UConverter_getNextUChar_UTF32_BEP23UConverterToUnicodeArgsP10UErrorCode.exit [
    i32 8, label %7
    i32 9, label %52
  ]

7:                                                ; preds = %2
  %8 = getelementptr inbounds nuw i8, ptr %0, i64 16
  %9 = load ptr, ptr %8, align 8, !tbaa !3
  %10 = getelementptr inbounds nuw i8, ptr %0, i64 24
  %11 = load ptr, ptr %10, align 8, !tbaa !14
  %.not.i = icmp ult ptr %9, %11
  br i1 %.not.i, label %12, label %_ZL34T_UConverter_getNextUChar_UTF32_BEP23UConverterToUnicodeArgsP10UErrorCode.exit.sink.split

12:                                               ; preds = %7
  %13 = ptrtoint ptr %11 to i64
  %14 = ptrtoint ptr %9 to i64
  %15 = sub i64 %13, %14
  %16 = trunc i64 %15 to i32
  %17 = icmp slt i32 %16, 4
  br i1 %17, label %18, label %25

18:                                               ; preds = %12
  %19 = getelementptr inbounds nuw i8, ptr %4, i64 65
  %sext.i = shl i64 %15, 32
  %20 = ashr exact i64 %sext.i, 32
  tail call void @llvm.memcpy.p0.p0.i64(ptr nonnull align 1 %19, ptr align 1 %9, i64 %20, i1 false)
  %21 = trunc i64 %15 to i8
  %22 = load ptr, ptr %3, align 8, !tbaa !16
  %23 = getelementptr inbounds nuw i8, ptr %22, i64 64
  store i8 %21, ptr %23, align 8, !tbaa !17
  %24 = getelementptr inbounds i8, ptr %9, i64 %20
  store ptr %24, ptr %8, align 8, !tbaa !3
  br label %_ZL34T_UConverter_getNextUChar_UTF32_BEP23UConverterToUnicodeArgsP10UErrorCode.exit.sink.split

25:                                               ; preds = %12
  %26 = load i8, ptr %9, align 1, !tbaa !23
  %27 = zext i8 %26 to i32
  %28 = shl nuw i32 %27, 24
  %29 = getelementptr inbounds nuw i8, ptr %9, i64 1
  %30 = load i8, ptr %29, align 1, !tbaa !23
  %31 = zext i8 %30 to i32
  %32 = shl nuw nsw i32 %31, 16
  %33 = or disjoint i32 %32, %28
  %34 = getelementptr inbounds nuw i8, ptr %9, i64 2
  %35 = load i8, ptr %34, align 1, !tbaa !23
  %36 = zext i8 %35 to i32
  %37 = shl nuw nsw i32 %36, 8
  %38 = getelementptr inbounds nuw i8, ptr %9, i64 3
  %39 = load i8, ptr %38, align 1, !tbaa !23
  %40 = zext i8 %39 to i32
  %41 = or disjoint i32 %37, %40
  %42 = or disjoint i32 %41, %33
  %43 = getelementptr inbounds nuw i8, ptr %9, i64 4
  store ptr %43, ptr %8, align 8, !tbaa !3
  %44 = icmp ugt i32 %33, 1114111
  %45 = and i32 %42, 2095104
  %46 = icmp eq i32 %45, 55296
  %or.cond.i = select i1 %44, i1 true, i1 %46
  br i1 %or.cond.i, label %47, label %_ZL34T_UConverter_getNextUChar_UTF32_BEP23UConverterToUnicodeArgsP10UErrorCode.exit

47:                                               ; preds = %25
  %48 = getelementptr inbounds nuw i8, ptr %4, i64 65
  %49 = load i32, ptr %9, align 1
  store i32 %49, ptr %48, align 1
  %50 = load ptr, ptr %3, align 8, !tbaa !16
  %51 = getelementptr inbounds nuw i8, ptr %50, i64 64
  store i8 4, ptr %51, align 8, !tbaa !17
  br label %_ZL34T_UConverter_getNextUChar_UTF32_BEP23UConverterToUnicodeArgsP10UErrorCode.exit.sink.split

52:                                               ; preds = %2
  %53 = getelementptr inbounds nuw i8, ptr %0, i64 16
  %54 = load ptr, ptr %53, align 8, !tbaa !3
  %55 = getelementptr inbounds nuw i8, ptr %0, i64 24
  %56 = load ptr, ptr %55, align 8, !tbaa !14
  %.not.i5 = icmp ult ptr %54, %56
  br i1 %.not.i5, label %57, label %_ZL34T_UConverter_getNextUChar_UTF32_BEP23UConverterToUnicodeArgsP10UErrorCode.exit.sink.split

57:                                               ; preds = %52
  %58 = ptrtoint ptr %56 to i64
  %59 = ptrtoint ptr %54 to i64
  %60 = sub i64 %58, %59
  %61 = trunc i64 %60 to i32
  %62 = icmp slt i32 %61, 4
  br i1 %62, label %63, label %70

63:                                               ; preds = %57
  %64 = getelementptr inbounds nuw i8, ptr %4, i64 65
  %sext.i10 = shl i64 %60, 32
  %65 = ashr exact i64 %sext.i10, 32
  tail call void @llvm.memcpy.p0.p0.i64(ptr nonnull align 1 %64, ptr align 1 %54, i64 %65, i1 false)
  %66 = trunc i64 %60 to i8
  %67 = load ptr, ptr %3, align 8, !tbaa !16
  %68 = getelementptr inbounds nuw i8, ptr %67, i64 64
  store i8 %66, ptr %68, align 8, !tbaa !17
  %69 = getelementptr inbounds i8, ptr %54, i64 %65
  store ptr %69, ptr %53, align 8, !tbaa !3
  br label %_ZL34T_UConverter_getNextUChar_UTF32_BEP23UConverterToUnicodeArgsP10UErrorCode.exit.sink.split

70:                                               ; preds = %57
  %71 = getelementptr inbounds nuw i8, ptr %54, i64 3
  %72 = load i8, ptr %71, align 1, !tbaa !23
  %73 = zext i8 %72 to i32
  %74 = shl nuw i32 %73, 24
  %75 = getelementptr inbounds nuw i8, ptr %54, i64 2
  %76 = load i8, ptr %75, align 1, !tbaa !23
  %77 = zext i8 %76 to i32
  %78 = shl nuw nsw i32 %77, 16
  %79 = or disjoint i32 %78, %74
  %80 = load i16, ptr %54, align 1
  %81 = zext i16 %80 to i32
  %82 = or disjoint i32 %79, %81
  %83 = getelementptr inbounds nuw i8, ptr %54, i64 4
  store ptr %83, ptr %53, align 8, !tbaa !3
  %84 = icmp ugt i32 %79, 1114111
  %85 = and i32 %82, 2095104
  %86 = icmp eq i32 %85, 55296
  %or.cond.i9 = select i1 %84, i1 true, i1 %86
  br i1 %or.cond.i9, label %87, label %_ZL34T_UConverter_getNextUChar_UTF32_BEP23UConverterToUnicodeArgsP10UErrorCode.exit

87:                                               ; preds = %70
  %88 = getelementptr inbounds nuw i8, ptr %4, i64 65
  %89 = load i32, ptr %54, align 1
  store i32 %89, ptr %88, align 1
  %90 = load ptr, ptr %3, align 8, !tbaa !16
  %91 = getelementptr inbounds nuw i8, ptr %90, i64 64
  store i8 4, ptr %91, align 8, !tbaa !17
  br label %_ZL34T_UConverter_getNextUChar_UTF32_BEP23UConverterToUnicodeArgsP10UErrorCode.exit.sink.split

_ZL34T_UConverter_getNextUChar_UTF32_BEP23UConverterToUnicodeArgsP10UErrorCode.exit.sink.split: ; preds = %52, %63, %87, %7, %18, %47
  %.sink.i7.sink = phi i32 [ 12, %47 ], [ 11, %18 ], [ 8, %7 ], [ 12, %87 ], [ 11, %63 ], [ 8, %52 ]
  store i32 %.sink.i7.sink, ptr %1, align 4, !tbaa !30
  br label %_ZL34T_UConverter_getNextUChar_UTF32_BEP23UConverterToUnicodeArgsP10UErrorCode.exit

_ZL34T_UConverter_getNextUChar_UTF32_BEP23UConverterToUnicodeArgsP10UErrorCode.exit: ; preds = %_ZL34T_UConverter_getNextUChar_UTF32_BEP23UConverterToUnicodeArgsP10UErrorCode.exit.sink.split, %70, %25, %2
  %.0 = phi i32 [ -9, %2 ], [ %42, %25 ], [ %82, %70 ], [ 65535, %_ZL34T_UConverter_getNextUChar_UTF32_BEP23UConverterToUnicodeArgsP10UErrorCode.exit.sink.split ]
  ret i32 %.0
}